Certificate:
    Data:
        Version: 3 (0x2)
        Serial Number: 78187493521 (0x1234567891)
        Signature Algorithm: sha256WithRSAEncryption
        Issuer: C=BN, ST=Chittagong, L=ctg, O=floorgang, OU=floor, CN=floorgang
        Validity
            Not Before: Apr 17 09:02:53 2021 GMT
            Not After : Apr 17 09:02:53 2022 GMT
        Subject: C=BN, ST=Chittagong, O=floorgang, OU=floor, CN=naziattttt.com
        Subject Public Key Info:
            Public Key Algorithm: rsaEncryption
                RSA Public-Key: (1024 bit)
                Modulus:
                    00:b2:10:f8:b2:0a:fd:bc:5f:fc:4a:83:31:37:9b:
                    1e:0f:a5:c0:ce:82:29:b0:ee:ba:64:14:68:31:ff:
                    65:8a:10:46:04:bf:a0:2e:3d:8e:fa:59:ca:a2:9b:
                    08:03:b1:e1:79:92:c5:fe:fa:f0:48:79:7d:11:a9:
                    2b:98:8b:15:47:35:a3:ba:68:37:f6:81:c0:df:40:
                    f4:5e:58:81:0f:43:ea:65:a1:74:d1:f3:97:35:ab:
                    2c:5e:f3:45:9a:80:ca:19:e1:46:3a:97:36:ec:66:
                    3d:bf:a8:3b:35:d2:ea:a7:00:74:1c:84:d7:0d:13:
                    8a:a9:ce:01:99:89:c0:1b:b5
                Exponent: 65537 (0x10001)
        X509v3 extensions:
            X509v3 Basic Constraints: 
                CA:FALSE
            Netscape Comment: 
                OpenSSL Generated Certificate
            X509v3 Subject Key Identifier: 
                60:12:02:FF:68:2F:BD:A6:CD:B5:EC:3B:DE:82:A0:AE:E9:58:92:00
            X509v3 Authority Key Identifier: 
                keyid:C6:8E:9B:59:95:0D:29:C5:1D:D1:C2:CA:F0:87:C2:ED:C8:62:AE:E8

    Signature Algorithm: sha256WithRSAEncryption
         88:20:1b:fb:a1:8c:4e:26:18:67:d4:56:f5:1f:6e:f9:23:99:
         8f:43:19:3f:b4:46:0a:75:23:14:e1:35:0a:5f:f9:52:c1:d5:
         e2:ea:f3:53:09:7e:0d:6c:80:a5:e8:78:30:60:18:5c:71:ee:
         1c:c6:a1:3f:c5:4e:c6:ec:a2:ff:40:c8:ae:4c:a3:eb:58:c8:
         5e:5a:e6:73:05:26:b3:db:33:1a:47:80:27:d2:96:3e:b1:19:
         9e:24:7c:c2:bb:bc:6c:cf:27:e4:81:e6:d1:9c:b8:f8:eb:ce:
         ca:23:b2:11:5a:88:93:21:e5:fc:2b:24:82:8a:ee:50:5d:b8:
         21:eb:3f:69:7a:90:4f:fc:86:6a:48:2e:23:09:b5:08:16:72:
         90:0c:a1:19:f1:a4:2c:13:e5:f9:be:73:91:58:57:c8:01:da:
         a2:3d:54:47:9b:80:12:f9:1c:89:0c:17:77:20:fa:9b:85:54:
         d4:b8:bd:ce:bc:bb:43:fe:3c:b5:bd:aa:1d:ef:74:de:a4:2a:
         3e:c9:16:a6:c5:8c:a2:17:e0:a7:2d:d6:7b:7f:ab:f3:9a:bd:
         ae:fc:42:d0:e2:ef:57:a7:83:84:db:90:02:e2:5e:dd:7b:7a:
         e8:3f:86:5d:7e:aa:40:aa:b8:30:90:f0:90:b7:64:8e:0b:fe:
         4e:e6:b8:2c
-----BEGIN CERTIFICATE-----
MIIDPTCCAiWgAwIBAgIFEjRWeJEwDQYJKoZIhvcNAQELBQAwaDELMAkGA1UEBhMC
Qk4xEzARBgNVBAgMCkNoaXR0YWdvbmcxDDAKBgNVBAcMA2N0ZzESMBAGA1UECgwJ
Zmxvb3JnYW5nMQ4wDAYDVQQLDAVmbG9vcjESMBAGA1UEAwwJZmxvb3JnYW5nMB4X
DTIxMDQxNzA5MDI1M1oXDTIyMDQxNzA5MDI1M1owXzELMAkGA1UEBhMCQk4xEzAR
BgNVBAgMCkNoaXR0YWdvbmcxEjAQBgNVBAoMCWZsb29yZ2FuZzEOMAwGA1UECwwF
Zmxvb3IxFzAVBgNVBAMMDm5hemlhdHR0dHQuY29tMIGfMA0GCSqGSIb3DQEBAQUA
A4GNADCBiQKBgQCyEPiyCv28X/xKgzE3mx4PpcDOgimw7rpkFGgx/2WKEEYEv6Au
PY76WcqimwgDseF5ksX++vBIeX0RqSuYixVHNaO6aDf2gcDfQPReWIEPQ+ploXTR
85c1qyxe80WagMoZ4UY6lzbsZj2/qDs10uqnAHQchNcNE4qpzgGZicAbtQIDAQAB
o3sweTAJBgNVHRMEAjAAMCwGCWCGSAGG+EIBDQQfFh1PcGVuU1NMIEdlbmVyYXRl
ZCBDZXJ0aWZpY2F0ZTAdBgNVHQ4EFgQUYBIC/2gvvabNtew73oKgrulYkgAwHwYD
VR0jBBgwFoAUxo6bWZUNKcUd0cLK8IfC7chirugwDQYJKoZIhvcNAQELBQADggEB
AIggG/uhjE4mGGfUVvUfbvkjmY9DGT+0Rgp1IxThNQpf+VLB1eLq81MJfg1sgKXo
eDBgGFxx7hzGoT/FTsbsov9AyK5Mo+tYyF5a5nMFJrPbMxpHgCfSlj6xGZ4kfMK7
vGzPJ+SB5tGcuPjrzsojshFaiJMh5fwrJIKK7lBduCHrP2l6kE/8hmpILiMJtQgW
cpAMoRnxpCwT5fm+c5FYV8gB2qI9VEebgBL5HIkMF3cg+puFVNS4vc68u0P+PLW9
qh3vdN6kKj7JFqbFjKIX4Kct1nt/q/Oava78QtDi71eng4TbkALiXt17eug/hl1+
qkCquDCQ8JC3ZI4L/k7muCw=
-----END CERTIFICATE-----
