Certificate:
    Data:
        Version: 3 (0x2)
        Serial Number: 78187493520 (0x1234567890)
        Signature Algorithm: sha256WithRSAEncryption
        Issuer: C=BD, ST=Chittagong, L=Chittagong, O=floorgang, OU=floor, CN=appledora/emailAddress=embers1010@gmail.com
        Validity
            Not Before: Apr 16 23:04:45 2021 GMT
            Not After : Apr 16 23:04:45 2022 GMT
        Subject: C=BD, ST=Chittagong, O=floorgang, OU=floor, CN=example.com
        Subject Public Key Info:
            Public Key Algorithm: rsaEncryption
                RSA Public-Key: (1024 bit)
                Modulus:
                    00:ca:be:ae:16:7e:66:6d:04:6c:84:2f:aa:6d:5a:
                    4e:a4:7f:59:1c:76:5f:60:8f:2a:42:01:e9:93:df:
                    5e:f8:7d:76:7a:a6:22:92:f2:9b:a0:20:e3:c3:f0:
                    46:f7:4d:bd:ff:47:42:a0:cd:a7:7e:fb:c2:30:bd:
                    4c:a1:5e:35:ff:5e:5b:02:d5:58:e9:63:47:2c:4c:
                    81:ec:2d:10:39:3e:04:d3:06:88:f6:47:10:85:58:
                    8e:0c:8b:77:08:59:28:73:9a:59:6e:1b:26:8a:e5:
                    28:30:16:d5:ce:6f:7c:35:62:96:90:b5:85:d0:d5:
                    c7:b8:e1:24:30:74:13:0e:e9
                Exponent: 65537 (0x10001)
        X509v3 extensions:
            X509v3 Basic Constraints: 
                CA:FALSE
            Netscape Comment: 
                OpenSSL Generated Certificate
            X509v3 Subject Key Identifier: 
                97:28:9D:27:44:61:55:55:22:27:0A:EA:24:84:2D:DC:6D:71:2F:69
            X509v3 Authority Key Identifier: 
                keyid:D9:F5:A9:94:E5:E0:6C:75:4E:13:82:70:81:E9:B1:F1:13:3B:47:18

    Signature Algorithm: sha256WithRSAEncryption
         64:a2:d2:b3:00:4a:70:2e:e9:80:31:ee:a1:d1:23:58:79:c0:
         06:27:07:67:eb:72:64:59:ee:2a:09:13:80:00:4e:27:01:5c:
         c9:6f:21:ea:f2:2d:05:62:1f:6b:d4:09:5a:09:90:59:d2:84:
         48:4d:99:03:a4:64:8f:da:da:d4:c1:e7:a9:56:15:1f:81:2a:
         8a:91:0c:d3:5c:b8:c5:52:30:92:c8:91:3c:12:84:27:36:ab:
         82:2d:a6:ea:61:e3:ac:cb:6a:70:a1:59:20:3c:29:48:2c:ee:
         33:9c:5d:ec:65:ce:a5:9b:f3:41:69:96:18:17:dd:88:8d:05:
         0a:55:58:61:ee:c5:cb:c6:24:13:7b:d1:d8:26:ad:52:6b:11:
         8d:dd:db:69:44:c8:f9:97:67:b5:90:a9:5a:9b:48:2d:ea:29:
         ce:60:b1:77:2d:9a:2b:8a:35:e8:68:a6:c8:d7:06:5f:99:92:
         89:7f:04:35:ea:32:ae:a5:25:29:9f:88:44:c3:7f:57:61:c1:
         bc:c7:df:8f:fb:b2:3c:66:bf:0b:76:44:00:77:0a:96:ac:4b:
         64:9a:4b:4e:3c:33:49:65:bc:f0:c0:01:4b:ec:cc:ee:ec:0c:
         75:27:a1:0a:81:aa:ca:18:3a:d5:0f:53:c5:ec:dd:d6:17:ee:
         b3:ab:8d:30
-----BEGIN CERTIFICATE-----
MIIDZzCCAk+gAwIBAgIFEjRWeJAwDQYJKoZIhvcNAQELBQAwgZQxCzAJBgNVBAYT
AkJEMRMwEQYDVQQIDApDaGl0dGFnb25nMRMwEQYDVQQHDApDaGl0dGFnb25nMRIw
EAYDVQQKDAlmbG9vcmdhbmcxDjAMBgNVBAsMBWZsb29yMRIwEAYDVQQDDAlhcHBs
ZWRvcmExIzAhBgkqhkiG9w0BCQEWFGVtYmVyczEwMTBAZ21haWwuY29tMB4XDTIx
MDQxNjIzMDQ0NVoXDTIyMDQxNjIzMDQ0NVowXDELMAkGA1UEBhMCQkQxEzARBgNV
BAgMCkNoaXR0YWdvbmcxEjAQBgNVBAoMCWZsb29yZ2FuZzEOMAwGA1UECwwFZmxv
b3IxFDASBgNVBAMMC2V4YW1wbGUuY29tMIGfMA0GCSqGSIb3DQEBAQUAA4GNADCB
iQKBgQDKvq4WfmZtBGyEL6ptWk6kf1kcdl9gjypCAemT3174fXZ6piKS8pugIOPD
8Eb3Tb3/R0Kgzad++8IwvUyhXjX/XlsC1VjpY0csTIHsLRA5PgTTBoj2RxCFWI4M
i3cIWShzmlluGyaK5SgwFtXOb3w1YpaQtYXQ1ce44SQwdBMO6QIDAQABo3sweTAJ
BgNVHRMEAjAAMCwGCWCGSAGG+EIBDQQfFh1PcGVuU1NMIEdlbmVyYXRlZCBDZXJ0
aWZpY2F0ZTAdBgNVHQ4EFgQUlyidJ0RhVVUiJwrqJIQt3G1xL2kwHwYDVR0jBBgw
FoAU2fWplOXgbHVOE4Jwgemx8RM7RxgwDQYJKoZIhvcNAQELBQADggEBAGSi0rMA
SnAu6YAx7qHRI1h5wAYnB2frcmRZ7ioJE4AATicBXMlvIeryLQViH2vUCVoJkFnS
hEhNmQOkZI/a2tTB56lWFR+BKoqRDNNcuMVSMJLIkTwShCc2q4Itpuph46zLanCh
WSA8KUgs7jOcXexlzqWb80FplhgX3YiNBQpVWGHuxcvGJBN70dgmrVJrEY3d22lE
yPmXZ7WQqVqbSC3qKc5gsXctmiuKNehopsjXBl+Zkol/BDXqMq6lJSmfiETDf1dh
wbzH34/7sjxmvwt2RAB3CpasS2SaS048M0llvPDAAUvszO7sDHUnoQqBqsoYOtUP
U8Xs3dYX7rOrjTA=
-----END CERTIFICATE-----
